target datalayout = "e-m:e-p270:32:32-p271:32:32-p272:64:64-i64:64-i128:128-f80:128-n8:16:32:64-S128"
target triple = "x86_64-pc-linux-gnu"

%class.QString = type { %struct.QArrayDataPointer }
%struct.QArrayDataPointer = type { ptr, ptr, i64 }
%class.QPaintDevice.base = type <{ ptr, i16 }>
%class.TCPStreamDialog = type { %class.GeometryStateDialog, ptr, ptr, %class.QMultiMap, double, i8, %class.QMap, double, i8, %struct.tcp_graph, ptr, %class.QString, ptr, ptr, ptr, ptr, ptr, ptr, ptr, ptr, ptr, ptr, ptr, ptr, ptr, ptr, %class.QRectF, i32, [4 x i8], %class.QTransform, i8, ptr, %class.QPoint, %class.QMenu, %"class.TCPStreamDialog::GraphUpdater", i32, i32, i32, double }
%class.GeometryStateDialog = type { %class.QDialog, %class.QString }
%class.QDialog = type { %class.QWidget }
%class.QWidget = type { %class.QObject, %class.QPaintDevice.base, ptr }
%class.QObject = type { ptr, %class.QScopedPointer }
%class.QScopedPointer = type { ptr }
%class.QMultiMap = type { %"class.QtPrivate::QExplicitlySharedDataPointerV2" }
%"class.QtPrivate::QExplicitlySharedDataPointerV2" = type { ptr }
%class.QMap = type { %"class.QtPrivate::QExplicitlySharedDataPointerV2.5" }
%"class.QtPrivate::QExplicitlySharedDataPointerV2.5" = type { ptr }
%struct.tcp_graph = type { i32, %struct._address, i16, %struct._address, i16, i32, ptr }
%struct._address = type { i32, i32, ptr, ptr }
%class.QRectF = type { double, double, double, double }
%class.QTransform = type <{ [3 x [3 x double]], i16, [6 x i8] }>
%class.QPoint = type { i32, i32 }
%class.QMenu = type { %class.QWidget }
%"class.TCPStreamDialog::GraphUpdater" = type <{ ptr, ptr, i8, [7 x i8] }>
%class.Ui_TCPStreamDialog = type { ptr, ptr, ptr, ptr, ptr, ptr, ptr, ptr, ptr, ptr, ptr, ptr, ptr, ptr, ptr, ptr, ptr, ptr, ptr, ptr, ptr, ptr, ptr, ptr, ptr, ptr, ptr, ptr, ptr, ptr, ptr, ptr, ptr, ptr, ptr, ptr, ptr, ptr, ptr, ptr, ptr, ptr, ptr, ptr, ptr, ptr, ptr, ptr, ptr, ptr, ptr, ptr, ptr, ptr, ptr, ptr, ptr }

; Function Attrs: mustprogress uwtable
define void @_ZN15TCPStreamDialog23showWidgetsForGraphTypeEv(ptr noundef nonnull align 8 dereferenceable(584) %0) #1 align 2 {
  %2 = alloca ptr, align 8
  store ptr %0, ptr %2, align 8
  %3 = load ptr, ptr %2, align 8
  %4 = getelementptr inbounds %class.TCPStreamDialog, ptr %3, i32 0, i32 9
  %5 = getelementptr inbounds %struct.tcp_graph, ptr %4, i32 0, i32 0
  %6 = load i32, ptr %5, align 8
  %7 = icmp eq i32 %6, 3
  br i1 %7, label %8, label %16

8:                                                ; preds = %1
  %9 = getelementptr inbounds %class.TCPStreamDialog, ptr %3, i32 0, i32 1
  %10 = load ptr, ptr %9, align 8
  %11 = getelementptr inbounds %class.Ui_TCPStreamDialog, ptr %10, i32 0, i32 47
  %12 = load ptr, ptr %11, align 8
  %13 = load ptr, ptr %12, align 8
  %14 = getelementptr inbounds ptr, ptr %13, i64 13
  %15 = load ptr, ptr %14, align 8
  call void %15(ptr noundef nonnull align 8 dereferenceable(40) %12, i1 noundef zeroext true)
  br label %24

16:                                               ; preds = %1
  %17 = getelementptr inbounds %class.TCPStreamDialog, ptr %3, i32 0, i32 1
  %18 = load ptr, ptr %17, align 8
  %19 = getelementptr inbounds %class.Ui_TCPStreamDialog, ptr %18, i32 0, i32 47
  %20 = load ptr, ptr %19, align 8
  %21 = load ptr, ptr %20, align 8
  %22 = getelementptr inbounds ptr, ptr %21, i64 13
  %23 = load ptr, ptr %22, align 8
  call void %23(ptr noundef nonnull align 8 dereferenceable(40) %20, i1 noundef zeroext false)
  br label %24

24:                                               ; preds = %16, %8
  %25 = getelementptr inbounds %class.TCPStreamDialog, ptr %3, i32 0, i32 9
  %26 = getelementptr inbounds %struct.tcp_graph, ptr %25, i32 0, i32 0
  %27 = load i32, ptr %26, align 8
  %28 = icmp eq i32 %27, 2
  br i1 %28, label %29, label %65

29:                                               ; preds = %24
  %30 = getelementptr inbounds %class.TCPStreamDialog, ptr %3, i32 0, i32 1
  %31 = load ptr, ptr %30, align 8
  %32 = getelementptr inbounds %class.Ui_TCPStreamDialog, ptr %31, i32 0, i32 35
  %33 = load ptr, ptr %32, align 8
  %34 = load ptr, ptr %33, align 8
  %35 = getelementptr inbounds ptr, ptr %34, i64 13
  %36 = load ptr, ptr %35, align 8
  call void %36(ptr noundef nonnull align 8 dereferenceable(40) %33, i1 noundef zeroext true)
  %37 = getelementptr inbounds %class.TCPStreamDialog, ptr %3, i32 0, i32 1
  %38 = load ptr, ptr %37, align 8
  %39 = getelementptr inbounds %class.Ui_TCPStreamDialog, ptr %38, i32 0, i32 36
  %40 = load ptr, ptr %39, align 8
  %41 = load ptr, ptr %40, align 8
  %42 = getelementptr inbounds ptr, ptr %41, i64 13
  %43 = load ptr, ptr %42, align 8
  call void %43(ptr noundef nonnull align 8 dereferenceable(40) %40, i1 noundef zeroext true)
  %44 = getelementptr inbounds %class.TCPStreamDialog, ptr %3, i32 0, i32 1
  %45 = load ptr, ptr %44, align 8
  %46 = getelementptr inbounds %class.Ui_TCPStreamDialog, ptr %45, i32 0, i32 48
  %47 = load ptr, ptr %46, align 8
  %48 = load ptr, ptr %47, align 8
  %49 = getelementptr inbounds ptr, ptr %48, i64 13
  %50 = load ptr, ptr %49, align 8
  call void %50(ptr noundef nonnull align 8 dereferenceable(40) %47, i1 noundef zeroext true)
  %51 = getelementptr inbounds %class.TCPStreamDialog, ptr %3, i32 0, i32 1
  %52 = load ptr, ptr %51, align 8
  %53 = getelementptr inbounds %class.Ui_TCPStreamDialog, ptr %52, i32 0, i32 49
  %54 = load ptr, ptr %53, align 8
  %55 = load ptr, ptr %54, align 8
  %56 = getelementptr inbounds ptr, ptr %55, i64 13
  %57 = load ptr, ptr %56, align 8
  call void %57(ptr noundef nonnull align 8 dereferenceable(40) %54, i1 noundef zeroext true)
  %58 = getelementptr inbounds %class.TCPStreamDialog, ptr %3, i32 0, i32 1
  %59 = load ptr, ptr %58, align 8
  %60 = getelementptr inbounds %class.Ui_TCPStreamDialog, ptr %59, i32 0, i32 50
  %61 = load ptr, ptr %60, align 8
  %62 = load ptr, ptr %61, align 8
  %63 = getelementptr inbounds ptr, ptr %62, i64 13
  %64 = load ptr, ptr %63, align 8
  call void %64(ptr noundef nonnull align 8 dereferenceable(40) %61, i1 noundef zeroext true)
  br label %101

65:                                               ; preds = %24
  %66 = getelementptr inbounds %class.TCPStreamDialog, ptr %3, i32 0, i32 1
  %67 = load ptr, ptr %66, align 8
  %68 = getelementptr inbounds %class.Ui_TCPStreamDialog, ptr %67, i32 0, i32 35
  %69 = load ptr, ptr %68, align 8
  %70 = load ptr, ptr %69, align 8
  %71 = getelementptr inbounds ptr, ptr %70, i64 13
  %72 = load ptr, ptr %71, align 8
  call void %72(ptr noundef nonnull align 8 dereferenceable(40) %69, i1 noundef zeroext false)
  %73 = getelementptr inbounds %class.TCPStreamDialog, ptr %3, i32 0, i32 1
  %74 = load ptr, ptr %73, align 8
  %75 = getelementptr inbounds %class.Ui_TCPStreamDialog, ptr %74, i32 0, i32 36
  %76 = load ptr, ptr %75, align 8
  %77 = load ptr, ptr %76, align 8
  %78 = getelementptr inbounds ptr, ptr %77, i64 13
  %79 = load ptr, ptr %78, align 8
  call void %79(ptr noundef nonnull align 8 dereferenceable(40) %76, i1 noundef zeroext false)
  %80 = getelementptr inbounds %class.TCPStreamDialog, ptr %3, i32 0, i32 1
  %81 = load ptr, ptr %80, align 8
  %82 = getelementptr inbounds %class.Ui_TCPStreamDialog, ptr %81, i32 0, i32 48
  %83 = load ptr, ptr %82, align 8
  %84 = load ptr, ptr %83, align 8
  %85 = getelementptr inbounds ptr, ptr %84, i64 13
  %86 = load ptr, ptr %85, align 8
  call void %86(ptr noundef nonnull align 8 dereferenceable(40) %83, i1 noundef zeroext false)
  %87 = getelementptr inbounds %class.TCPStreamDialog, ptr %3, i32 0, i32 1
  %88 = load ptr, ptr %87, align 8
  %89 = getelementptr inbounds %class.Ui_TCPStreamDialog, ptr %88, i32 0, i32 49
  %90 = load ptr, ptr %89, align 8
  %91 = load ptr, ptr %90, align 8
  %92 = getelementptr inbounds ptr, ptr %91, i64 13
  %93 = load ptr, ptr %92, align 8
  call void %93(ptr noundef nonnull align 8 dereferenceable(40) %90, i1 noundef zeroext false)
  %94 = getelementptr inbounds %class.TCPStreamDialog, ptr %3, i32 0, i32 1
  %95 = load ptr, ptr %94, align 8
  %96 = getelementptr inbounds %class.Ui_TCPStreamDialog, ptr %95, i32 0, i32 50
  %97 = load ptr, ptr %96, align 8
  %98 = load ptr, ptr %97, align 8
  %99 = getelementptr inbounds ptr, ptr %98, i64 13
  %100 = load ptr, ptr %99, align 8
  call void %100(ptr noundef nonnull align 8 dereferenceable(40) %97, i1 noundef zeroext false)
  br label %101

101:                                              ; preds = %65, %29
  %102 = getelementptr inbounds %class.TCPStreamDialog, ptr %3, i32 0, i32 9
  %103 = getelementptr inbounds %struct.tcp_graph, ptr %102, i32 0, i32 0
  %104 = load i32, ptr %103, align 8
  %105 = icmp eq i32 %104, 1
  br i1 %105, label %106, label %114

106:                                              ; preds = %101
  %107 = getelementptr inbounds %class.TCPStreamDialog, ptr %3, i32 0, i32 1
  %108 = load ptr, ptr %107, align 8
  %109 = getelementptr inbounds %class.Ui_TCPStreamDialog, ptr %108, i32 0, i32 37
  %110 = load ptr, ptr %109, align 8
  %111 = load ptr, ptr %110, align 8
  %112 = getelementptr inbounds ptr, ptr %111, i64 13
  %113 = load ptr, ptr %112, align 8
  call void %113(ptr noundef nonnull align 8 dereferenceable(40) %110, i1 noundef zeroext true)
  br label %122

114:                                              ; preds = %101
  %115 = getelementptr inbounds %class.TCPStreamDialog, ptr %3, i32 0, i32 1
  %116 = load ptr, ptr %115, align 8
  %117 = getelementptr inbounds %class.Ui_TCPStreamDialog, ptr %116, i32 0, i32 37
  %118 = load ptr, ptr %117, align 8
  %119 = load ptr, ptr %118, align 8
  %120 = getelementptr inbounds ptr, ptr %119, i64 13
  %121 = load ptr, ptr %120, align 8
  call void %121(ptr noundef nonnull align 8 dereferenceable(40) %118, i1 noundef zeroext false)
  br label %122

122:                                              ; preds = %114, %106
  %123 = getelementptr inbounds %class.TCPStreamDialog, ptr %3, i32 0, i32 9
  %124 = getelementptr inbounds %struct.tcp_graph, ptr %123, i32 0, i32 0
  %125 = load i32, ptr %124, align 8
  %126 = icmp eq i32 %125, 4
  br i1 %126, label %127, label %142

127:                                              ; preds = %122
  %128 = getelementptr inbounds %class.TCPStreamDialog, ptr %3, i32 0, i32 1
  %129 = load ptr, ptr %128, align 8
  %130 = getelementptr inbounds %class.Ui_TCPStreamDialog, ptr %129, i32 0, i32 51
  %131 = load ptr, ptr %130, align 8
  %132 = load ptr, ptr %131, align 8
  %133 = getelementptr inbounds ptr, ptr %132, i64 13
  %134 = load ptr, ptr %133, align 8
  call void %134(ptr noundef nonnull align 8 dereferenceable(40) %131, i1 noundef zeroext true)
  %135 = getelementptr inbounds %class.TCPStreamDialog, ptr %3, i32 0, i32 1
  %136 = load ptr, ptr %135, align 8
  %137 = getelementptr inbounds %class.Ui_TCPStreamDialog, ptr %136, i32 0, i32 52
  %138 = load ptr, ptr %137, align 8
  %139 = load ptr, ptr %138, align 8
  %140 = getelementptr inbounds ptr, ptr %139, i64 13
  %141 = load ptr, ptr %140, align 8
  call void %141(ptr noundef nonnull align 8 dereferenceable(40) %138, i1 noundef zeroext true)
  br label %157

142:                                              ; preds = %122
  %143 = getelementptr inbounds %class.TCPStreamDialog, ptr %3, i32 0, i32 1
  %144 = load ptr, ptr %143, align 8
  %145 = getelementptr inbounds %class.Ui_TCPStreamDialog, ptr %144, i32 0, i32 51
  %146 = load ptr, ptr %145, align 8
  %147 = load ptr, ptr %146, align 8
  %148 = getelementptr inbounds ptr, ptr %147, i64 13
  %149 = load ptr, ptr %148, align 8
  call void %149(ptr noundef nonnull align 8 dereferenceable(40) %146, i1 noundef zeroext false)
  %150 = getelementptr inbounds %class.TCPStreamDialog, ptr %3, i32 0, i32 1
  %151 = load ptr, ptr %150, align 8
  %152 = getelementptr inbounds %class.Ui_TCPStreamDialog, ptr %151, i32 0, i32 52
  %153 = load ptr, ptr %152, align 8
  %154 = load ptr, ptr %153, align 8
  %155 = getelementptr inbounds ptr, ptr %154, i64 13
  %156 = load ptr, ptr %155, align 8
  call void %156(ptr noundef nonnull align 8 dereferenceable(40) %153, i1 noundef zeroext false)
  br label %157

157:                                              ; preds = %142, %127
  ret void
}