; Function Attrs: mustprogress uwtable
define void @_ZN15TCPStreamDialog23showWidgetsForGraphTypeEv(ptr nocapture noundef nonnull readonly align 8 dereferenceable(584) %0) local_unnamed_addr #2 align 2 {
  %2 = getelementptr inbounds i8, ptr %0, i64 128
  %3 = load i32, ptr %2, align 8
  %4 = icmp eq i32 %3, 3
  %5 = getelementptr inbounds i8, ptr %0, i64 64
  %6 = load ptr, ptr %5, align 8
  %7 = getelementptr inbounds i8, ptr %6, i64 376
  %8 = load ptr, ptr %7, align 8
  %9 = load ptr, ptr %8, align 8
  %10 = getelementptr inbounds i8, ptr %9, i64 104
  %11 = load ptr, ptr %10, align 8
  tail call void %11(ptr noundef nonnull align 8 dereferenceable(40) %8, i1 noundef zeroext %4)
  %12 = load i32, ptr %2, align 8
  %13 = icmp eq i32 %12, 2
  %14 = getelementptr inbounds i8, ptr %0, i64 64
  %15 = load ptr, ptr %14, align 8
  %16 = getelementptr inbounds i8, ptr %15, i64 280
  %17 = load ptr, ptr %16, align 8
  %18 = load ptr, ptr %17, align 8
  %19 = getelementptr inbounds i8, ptr %18, i64 104
  %20 = load ptr, ptr %19, align 8
  br i1 %13, label %21, label %46

21:                                               ; preds = %1
  tail call void %20(ptr noundef nonnull align 8 dereferenceable(40) %17, i1 noundef zeroext true)
  %22 = load ptr, ptr %14, align 8
  %23 = getelementptr inbounds i8, ptr %22, i64 288
  %24 = load ptr, ptr %23, align 8
  %25 = load ptr, ptr %24, align 8
  %26 = getelementptr inbounds i8, ptr %25, i64 104
  %27 = load ptr, ptr %26, align 8
  tail call void %27(ptr noundef nonnull align 8 dereferenceable(40) %24, i1 noundef zeroext true)
  %28 = load ptr, ptr %14, align 8
  %29 = getelementptr inbounds i8, ptr %28, i64 384
  %30 = load ptr, ptr %29, align 8
  %31 = load ptr, ptr %30, align 8
  %32 = getelementptr inbounds i8, ptr %31, i64 104
  %33 = load ptr, ptr %32, align 8
  tail call void %33(ptr noundef nonnull align 8 dereferenceable(40) %30, i1 noundef zeroext true)
  %34 = load ptr, ptr %14, align 8
  %35 = getelementptr inbounds i8, ptr %34, i64 392
  %36 = load ptr, ptr %35, align 8
  %37 = load ptr, ptr %36, align 8
  %38 = getelementptr inbounds i8, ptr %37, i64 104
  %39 = load ptr, ptr %38, align 8
  tail call void %39(ptr noundef nonnull align 8 dereferenceable(40) %36, i1 noundef zeroext true)
  %40 = load ptr, ptr %14, align 8
  %41 = getelementptr inbounds i8, ptr %40, i64 400
  %42 = load ptr, ptr %41, align 8
  %43 = load ptr, ptr %42, align 8
  %44 = getelementptr inbounds i8, ptr %43, i64 104
  %45 = load ptr, ptr %44, align 8
  tail call void %45(ptr noundef nonnull align 8 dereferenceable(40) %42, i1 noundef zeroext true)
  br label %71

46:                                               ; preds = %1
  tail call void %20(ptr noundef nonnull align 8 dereferenceable(40) %17, i1 noundef zeroext false)
  %47 = load ptr, ptr %14, align 8
  %48 = getelementptr inbounds i8, ptr %47, i64 288
  %49 = load ptr, ptr %48, align 8
  %50 = load ptr, ptr %49, align 8
  %51 = getelementptr inbounds i8, ptr %50, i64 104
  %52 = load ptr, ptr %51, align 8
  tail call void %52(ptr noundef nonnull align 8 dereferenceable(40) %49, i1 noundef zeroext false)
  %53 = load ptr, ptr %14, align 8
  %54 = getelementptr inbounds i8, ptr %53, i64 384
  %55 = load ptr, ptr %54, align 8
  %56 = load ptr, ptr %55, align 8
  %57 = getelementptr inbounds i8, ptr %56, i64 104
  %58 = load ptr, ptr %57, align 8
  tail call void %58(ptr noundef nonnull align 8 dereferenceable(40) %55, i1 noundef zeroext false)
  %59 = load ptr, ptr %14, align 8
  %60 = getelementptr inbounds i8, ptr %59, i64 392
  %61 = load ptr, ptr %60, align 8
  %62 = load ptr, ptr %61, align 8
  %63 = getelementptr inbounds i8, ptr %62, i64 104
  %64 = load ptr, ptr %63, align 8
  tail call void %64(ptr noundef nonnull align 8 dereferenceable(40) %61, i1 noundef zeroext false)
  %65 = load ptr, ptr %14, align 8
  %66 = getelementptr inbounds i8, ptr %65, i64 400
  %67 = load ptr, ptr %66, align 8
  %68 = load ptr, ptr %67, align 8
  %69 = getelementptr inbounds i8, ptr %68, i64 104
  %70 = load ptr, ptr %69, align 8
  tail call void %70(ptr noundef nonnull align 8 dereferenceable(40) %67, i1 noundef zeroext false)
  br label %71

71:                                               ; preds = %46, %21
  %72 = load i32, ptr %2, align 8
  %73 = icmp eq i32 %72, 1
  %74 = getelementptr inbounds i8, ptr %0, i64 64
  %75 = load ptr, ptr %74, align 8
  %76 = getelementptr inbounds i8, ptr %75, i64 296
  %77 = load ptr, ptr %76, align 8
  %78 = load ptr, ptr %77, align 8
  %79 = getelementptr inbounds i8, ptr %78, i64 104
  %80 = load ptr, ptr %79, align 8
  tail call void %80(ptr noundef nonnull align 8 dereferenceable(40) %77, i1 noundef zeroext %73)
  %81 = load i32, ptr %2, align 8
  %82 = icmp eq i32 %81, 4
  %83 = getelementptr inbounds i8, ptr %0, i64 64
  %84 = load ptr, ptr %83, align 8
  %85 = getelementptr inbounds i8, ptr %84, i64 408
  %86 = load ptr, ptr %85, align 8
  %87 = load ptr, ptr %86, align 8
  %88 = getelementptr inbounds i8, ptr %87, i64 104
  %89 = load ptr, ptr %88, align 8
  br i1 %82, label %90, label %97

90:                                               ; preds = %71
  tail call void %89(ptr noundef nonnull align 8 dereferenceable(40) %86, i1 noundef zeroext true)
  %91 = load ptr, ptr %83, align 8
  %92 = getelementptr inbounds i8, ptr %91, i64 416
  %93 = load ptr, ptr %92, align 8
  %94 = load ptr, ptr %93, align 8
  %95 = getelementptr inbounds i8, ptr %94, i64 104
  %96 = load ptr, ptr %95, align 8
  tail call void %96(ptr noundef nonnull align 8 dereferenceable(40) %93, i1 noundef zeroext true)
  br label %104

97:                                               ; preds = %71
  tail call void %89(ptr noundef nonnull align 8 dereferenceable(40) %86, i1 noundef zeroext false)
  %98 = load ptr, ptr %83, align 8
  %99 = getelementptr inbounds i8, ptr %98, i64 416
  %100 = load ptr, ptr %99, align 8
  %101 = load ptr, ptr %100, align 8
  %102 = getelementptr inbounds i8, ptr %101, i64 104
  %103 = load ptr, ptr %102, align 8
  tail call void %103(ptr noundef nonnull align 8 dereferenceable(40) %100, i1 noundef zeroext false)
  br label %104

104:                                              ; preds = %97, %90
  ret void
}